; Function Attrs: mustprogress nofree norecurse nosync nounwind willreturn memory(argmem: write) uwtable
define void @_ZN3g2o21OptimizationAlgorithmC2Ev(ptr noundef nonnull align 8 dereferenceable(64) %0) unnamed_addr #3 align 2 personality ptr @__gxx_personality_v0 {
  store ptr getelementptr inbounds inrange(-16, 56) (i8, ptr @_ZTVN3g2o21OptimizationAlgorithmE, i64 16), ptr %0, align 8
  %2 = getelementptr inbounds nuw i8, ptr %0, i64 8
  store ptr null, ptr %2, align 8
  %3 = getelementptr inbounds i8, ptr %0, i64 24
  store i32 0, ptr %3, align 8
  %4 = getelementptr inbounds i8, ptr %0, i64 32
  store ptr null, ptr %4, align 8
  %5 = getelementptr inbounds i8, ptr %0, i64 40
  store ptr %3, ptr %5, align 8
  %6 = getelementptr inbounds i8, ptr %0, i64 48
  store ptr %3, ptr %6, align 8
  %7 = getelementptr inbounds i8, ptr %0, i64 56
  store i64 0, ptr %7, align 8
  ret void
}